target datalayout = "e-m:e-p270:32:32-p271:32:32-p272:64:64-i64:64-i128:128-f80:128-n8:16:32:64-S128"
target triple = "x86_64-pc-linux-gnu"

%"class.net::QuicTime" = type { i64 }
%"class.net::QuicFramer" = type { ptr, %"class.std::__cxx11::basic_string", ptr, ptr, i32, %"class.std::unordered_set", %"class.std::unordered_map", i64, %"class.std::unordered_map", i64, i8, i64, i32, i32, %"class.std::vector", %"class.std::unique_ptr", %"class.std::unique_ptr", i8, i8, i8, [3 x %"class.std::unique_ptr.23"], i32, i8, %"class.net::QuicTime", %"class.net::QuicTime::Delta", %"struct.std::array" }
%"class.std::__cxx11::basic_string" = type { %"struct.std::__cxx11::basic_string<char>::_Alloc_hider", i64, %union.anon }
%"struct.std::__cxx11::basic_string<char>::_Alloc_hider" = type { ptr }
%union.anon = type { i64, [8 x i8] }
%"class.std::unordered_set" = type { %"class.std::_Hashtable" }
%"class.std::_Hashtable" = type { ptr, i64, %"struct.std::__detail::_Hash_node_base", i64, %"struct.std::__detail::_Prime_rehash_policy", ptr }
%"struct.std::__detail::_Hash_node_base" = type { ptr }
%"struct.std::__detail::_Prime_rehash_policy" = type { float, i64 }
%"class.std::unordered_map" = type { %"class.std::_Hashtable.5" }
%"class.std::_Hashtable.5" = type { ptr, i64, %"struct.std::__detail::_Hash_node_base", i64, %"struct.std::__detail::_Prime_rehash_policy", ptr }
%"class.std::vector" = type { %"struct.std::_Vector_base" }
%"struct.std::_Vector_base" = type { %"struct.std::_Vector_base<net::QuicVersion, std::allocator<net::QuicVersion>>::_Vector_impl" }
%"struct.std::_Vector_base<net::QuicVersion, std::allocator<net::QuicVersion>>::_Vector_impl" = type { %"struct.std::_Vector_base<net::QuicVersion, std::allocator<net::QuicVersion>>::_Vector_impl_data" }
%"struct.std::_Vector_base<net::QuicVersion, std::allocator<net::QuicVersion>>::_Vector_impl_data" = type { ptr, ptr, ptr }
%"class.std::unique_ptr" = type { %"struct.std::__uniq_ptr_data" }
%"struct.std::__uniq_ptr_data" = type { %"class.std::__uniq_ptr_impl" }
%"class.std::__uniq_ptr_impl" = type { %"class.std::tuple" }
%"class.std::tuple" = type { %"struct.std::_Tuple_impl" }
%"struct.std::_Tuple_impl" = type { %"struct.std::_Head_base.22" }
%"struct.std::_Head_base.22" = type { ptr }
%"class.std::unique_ptr.23" = type { %"struct.std::__uniq_ptr_data.24" }
%"struct.std::__uniq_ptr_data.24" = type { %"class.std::__uniq_ptr_impl.25" }
%"class.std::__uniq_ptr_impl.25" = type { %"class.std::tuple.26" }
%"class.std::tuple.26" = type { %"struct.std::_Tuple_impl.27" }
%"struct.std::_Tuple_impl.27" = type { %"struct.std::_Head_base.30" }
%"struct.std::_Head_base.30" = type { ptr }
%"class.net::QuicTime::Delta" = type { %"class.base::TimeDelta", i64 }
%"class.base::TimeDelta" = type { i64 }
%"struct.std::array" = type { [32 x i8] }
%"struct.net::QuicStreamFrame" = type { i32, i8, i16, ptr, i64, %"class.std::unique_ptr.40" }
%"class.std::unique_ptr.40" = type { %"struct.std::__uniq_ptr_data.41" }
%"struct.std::__uniq_ptr_data.41" = type { %"class.std::__uniq_ptr_impl.42" }
%"class.std::__uniq_ptr_impl.42" = type { %"class.std::tuple.43" }
%"class.std::tuple.43" = type { %"struct.std::_Tuple_impl.44" }
%"struct.std::_Tuple_impl.44" = type { %"struct.std::_Tuple_impl.45", %"struct.std::_Head_base.47" }
%"struct.std::_Tuple_impl.45" = type { %"struct.std::_Head_base.46" }
%"struct.std::_Head_base.46" = type { %"class.net::StreamBufferDeleter" }
%"class.net::StreamBufferDeleter" = type { ptr }
%"struct.std::_Head_base.47" = type { ptr }
%"class.base::BasicStringPiece" = type { ptr, i64 }

@.str.49 = private unnamed_addr constant [26 x i8] c"Unable to read stream_id.\00", align 1
@.str.50 = private unnamed_addr constant [23 x i8] c"Unable to read offset.\00", align 1
@.str.51 = private unnamed_addr constant [27 x i8] c"Unable to read frame data.\00", align 1

; Function Attrs: mustprogress nounwind uwtable
define linkonce_odr noundef i64 @_ZNSt11char_traitsIcE6lengthEPKc(ptr noundef %0) #1 comdat align 2 {
  %2 = alloca ptr, align 8
  store ptr %0, ptr %2, align 8, !tbaa !98
  %3 = load ptr, ptr %2, align 8, !tbaa !98
  %4 = call i64 @strlen(ptr noundef %3) #17
  ret i64 %4
}

; Function Attrs: mustprogress nounwind uwtable
define available_externally noundef i64 @_ZNKSt7__cxx1112basic_stringIcSt11char_traitsIcESaIcEE4sizeEv(ptr noundef nonnull align 8 dereferenceable(32) %0) #1 align 2 {
  %2 = alloca ptr, align 8
  store ptr %0, ptr %2, align 8, !tbaa !66
  %3 = load ptr, ptr %2, align 8
  %4 = getelementptr inbounds nuw %"class.std::__cxx11::basic_string", ptr %3, i32 0, i32 1
  %5 = load i64, ptr %4, align 8, !tbaa !368
  ret i64 %5
}

; Function Attrs: mustprogress uwtable
define available_externally noundef nonnull align 8 dereferenceable(32) ptr @_ZNSt7__cxx1112basic_stringIcSt11char_traitsIcESaIcEE6assignEPKc(ptr noundef nonnull align 8 dereferenceable(32) %0, ptr noundef %1) #0 align 2 {
  %3 = alloca ptr, align 8
  %4 = alloca ptr, align 8
  store ptr %0, ptr %3, align 8, !tbaa !66
  store ptr %1, ptr %4, align 8, !tbaa !98
  %5 = load ptr, ptr %3, align 8
  %6 = call noundef i64 @_ZNKSt7__cxx1112basic_stringIcSt11char_traitsIcESaIcEE4sizeEv(ptr noundef nonnull align 8 dereferenceable(32) %5) #17
  %7 = load ptr, ptr %4, align 8, !tbaa !98
  %8 = load ptr, ptr %4, align 8, !tbaa !98
  %9 = call noundef i64 @_ZNSt11char_traitsIcE6lengthEPKc(ptr noundef %8)
  %10 = call noundef nonnull align 8 dereferenceable(32) ptr @_ZNSt7__cxx1112basic_stringIcSt11char_traitsIcESaIcEE10_M_replaceEmmPKcm(ptr noundef nonnull align 8 dereferenceable(32) %5, i64 noundef 0, i64 noundef %6, ptr noundef %7, i64 noundef %9)
  ret ptr %10
}

; Function Attrs: mustprogress uwtable
define available_externally noundef nonnull align 8 dereferenceable(32) ptr @_ZNSt7__cxx1112basic_stringIcSt11char_traitsIcESaIcEEaSEPKc(ptr noundef nonnull align 8 dereferenceable(32) %0, ptr noundef %1) #0 align 2 {
  %3 = alloca ptr, align 8
  %4 = alloca ptr, align 8
  store ptr %0, ptr %3, align 8, !tbaa !66
  store ptr %1, ptr %4, align 8, !tbaa !98
  %5 = load ptr, ptr %3, align 8
  %6 = load ptr, ptr %4, align 8, !tbaa !98
  %7 = call noundef nonnull align 8 dereferenceable(32) ptr @_ZNSt7__cxx1112basic_stringIcSt11char_traitsIcESaIcEE6assignEPKc(ptr noundef nonnull align 8 dereferenceable(32) %5, ptr noundef %6)
  ret ptr %7
}

; Function Attrs: mustprogress nounwind uwtable
define available_externally noundef i64 @_ZNK4base16BasicStringPieceINSt7__cxx1112basic_stringIcSt11char_traitsIcESaIcEEEE6lengthEv(ptr noundef nonnull align 8 dereferenceable(16) %0) #1 align 2 {
  %2 = alloca ptr, align 8
  store ptr %0, ptr %2, align 8, !tbaa !276
  %3 = load ptr, ptr %2, align 8
  %4 = getelementptr inbounds nuw %"class.base::BasicStringPiece", ptr %3, i32 0, i32 1
  %5 = load i64, ptr %4, align 8, !tbaa !280
  ret i64 %5
}

; Function Attrs: mustprogress nounwind uwtable
define available_externally noundef ptr @_ZNK4base16BasicStringPieceINSt7__cxx1112basic_stringIcSt11char_traitsIcESaIcEEEE4dataEv(ptr noundef nonnull align 8 dereferenceable(16) %0) #1 align 2 {
  %2 = alloca ptr, align 8
  store ptr %0, ptr %2, align 8, !tbaa !276
  %3 = load ptr, ptr %2, align 8
  %4 = getelementptr inbounds nuw %"class.base::BasicStringPiece", ptr %3, i32 0, i32 0
  %5 = load ptr, ptr %4, align 8, !tbaa !278
  ret ptr %5
}

; Function Attrs: mustprogress nounwind uwtable
define available_externally void @_ZN4base16BasicStringPieceINSt7__cxx1112basic_stringIcSt11char_traitsIcESaIcEEEEC2Ev(ptr noundef nonnull align 8 dereferenceable(16) %0) unnamed_addr #1 align 2 {
  %2 = alloca ptr, align 8
  store ptr %0, ptr %2, align 8, !tbaa !276
  %3 = load ptr, ptr %2, align 8
  %4 = getelementptr inbounds nuw %"class.base::BasicStringPiece", ptr %3, i32 0, i32 0
  store ptr null, ptr %4, align 8, !tbaa !278
  %5 = getelementptr inbounds nuw %"class.base::BasicStringPiece", ptr %3, i32 0, i32 1
  store i64 0, ptr %5, align 8, !tbaa !280
  ret void
}

; Function Attrs: mustprogress uwtable
define linkonce_odr void @_ZN3net10QuicFramer18set_detailed_errorEPKc(ptr noundef nonnull align 8 dereferenceable(408) %0, ptr noundef %1) #0 comdat align 2 {
  %3 = alloca ptr, align 8
  %4 = alloca ptr, align 8
  store ptr %0, ptr %3, align 8, !tbaa !3
  store ptr %1, ptr %4, align 8, !tbaa !98
  %5 = load ptr, ptr %3, align 8
  %6 = load ptr, ptr %4, align 8, !tbaa !98
  %7 = getelementptr inbounds nuw %"class.net::QuicFramer", ptr %5, i32 0, i32 1
  %8 = call noundef nonnull align 8 dereferenceable(32) ptr @_ZNSt7__cxx1112basic_stringIcSt11char_traitsIcESaIcEEaSEPKc(ptr noundef nonnull align 8 dereferenceable(32) %7, ptr noundef %6)
  ret void
}

; Function Attrs: mustprogress uwtable
define noundef zeroext i1 @_ZN3net10QuicFramer18ProcessStreamFrameEPNS_14QuicDataReaderEhPNS_15QuicStreamFrameE(ptr noundef nonnull align 8 dereferenceable(408) %0, ptr noundef %1, i8 noundef zeroext %2, ptr noundef %3) #0 align 2 {
  %5 = alloca i1, align 1
  %6 = alloca ptr, align 8
  %7 = alloca ptr, align 8
  %8 = alloca i8, align 1
  %9 = alloca ptr, align 8
  %10 = alloca i8, align 1
  %11 = alloca i8, align 1
  %12 = alloca i8, align 1
  %13 = alloca i8, align 1
  %14 = alloca i32, align 4
  %15 = alloca %"class.base::BasicStringPiece", align 8
  store ptr %0, ptr %6, align 8, !tbaa !3
  store ptr %1, ptr %7, align 8, !tbaa !297
  store i8 %2, ptr %8, align 1, !tbaa !107
  store ptr %3, ptr %9, align 8, !tbaa !178
  %16 = load ptr, ptr %6, align 8
  call void @llvm.lifetime.start.p0(i64 1, ptr %10) #17
  %17 = load i8, ptr %8, align 1, !tbaa !107
  store i8 %17, ptr %10, align 1, !tbaa !107
  %18 = load i8, ptr %10, align 1, !tbaa !107
  %19 = zext i8 %18 to i32
  %20 = and i32 %19, -129
  %21 = trunc i32 %20 to i8
  store i8 %21, ptr %10, align 1, !tbaa !107
  call void @llvm.lifetime.start.p0(i64 1, ptr %11) #17
  %22 = load i8, ptr %10, align 1, !tbaa !107
  %23 = zext i8 %22 to i32
  %24 = and i32 %23, 3
  %25 = add nsw i32 %24, 1
  %26 = trunc i32 %25 to i8
  store i8 %26, ptr %11, align 1, !tbaa !107
  %27 = load i8, ptr %10, align 1, !tbaa !107
  %28 = zext i8 %27 to i32
  %29 = ashr i32 %28, 2
  %30 = trunc i32 %29 to i8
  store i8 %30, ptr %10, align 1, !tbaa !107
  call void @llvm.lifetime.start.p0(i64 1, ptr %12) #17
  %31 = load i8, ptr %10, align 1, !tbaa !107
  %32 = zext i8 %31 to i32
  %33 = and i32 %32, 7
  %34 = trunc i32 %33 to i8
  store i8 %34, ptr %12, align 1, !tbaa !107
  %35 = load i8, ptr %12, align 1, !tbaa !107
  %36 = zext i8 %35 to i32
  %37 = icmp sgt i32 %36, 0
  br i1 %37, label %38, label %43

38:                                               ; preds = %4
  %39 = load i8, ptr %12, align 1, !tbaa !107
  %40 = zext i8 %39 to i32
  %41 = add nsw i32 %40, 1
  %42 = trunc i32 %41 to i8
  store i8 %42, ptr %12, align 1, !tbaa !107
  br label %43

43:                                               ; preds = %38, %4
  %44 = load i8, ptr %10, align 1, !tbaa !107
  %45 = zext i8 %44 to i32
  %46 = ashr i32 %45, 3
  %47 = trunc i32 %46 to i8
  store i8 %47, ptr %10, align 1, !tbaa !107
  call void @llvm.lifetime.start.p0(i64 1, ptr %13) #17
  %48 = load i8, ptr %10, align 1, !tbaa !107
  %49 = zext i8 %48 to i32
  %50 = and i32 %49, 1
  %51 = icmp eq i32 %50, 1
  %52 = zext i1 %51 to i8
  store i8 %52, ptr %13, align 1, !tbaa !86
  %53 = load i8, ptr %10, align 1, !tbaa !107
  %54 = zext i8 %53 to i32
  %55 = ashr i32 %54, 1
  %56 = trunc i32 %55 to i8
  store i8 %56, ptr %10, align 1, !tbaa !107
  %57 = load i8, ptr %10, align 1, !tbaa !107
  %58 = zext i8 %57 to i32
  %59 = and i32 %58, 1
  %60 = icmp eq i32 %59, 1
  %61 = load ptr, ptr %9, align 8, !tbaa !178
  %62 = getelementptr inbounds nuw %"struct.net::QuicStreamFrame", ptr %61, i32 0, i32 1
  %63 = zext i1 %60 to i8
  store i8 %63, ptr %62, align 4, !tbaa !177
  %64 = load ptr, ptr %9, align 8, !tbaa !178
  %65 = getelementptr inbounds nuw %"struct.net::QuicStreamFrame", ptr %64, i32 0, i32 0
  store i32 0, ptr %65, align 8, !tbaa !109
  %66 = load ptr, ptr %7, align 8, !tbaa !297
  %67 = load ptr, ptr %9, align 8, !tbaa !178
  %68 = getelementptr inbounds nuw %"struct.net::QuicStreamFrame", ptr %67, i32 0, i32 0
  %69 = load i8, ptr %11, align 1, !tbaa !107
  %70 = zext i8 %69 to i64
  %71 = call noundef zeroext i1 @_ZN3net14QuicDataReader9ReadBytesEPvm(ptr noundef nonnull align 8 dereferenceable(24) %66, ptr noundef %68, i64 noundef %70)
  br i1 %71, label %73, label %72

72:                                               ; preds = %43
  call void @_ZN3net10QuicFramer18set_detailed_errorEPKc(ptr noundef nonnull align 8 dereferenceable(408) %16, ptr noundef @.str.49)
  store i1 false, ptr %5, align 1
  store i32 1, ptr %14, align 4
  br label %107

73:                                               ; preds = %43
  %74 = load ptr, ptr %9, align 8, !tbaa !178
  %75 = getelementptr inbounds nuw %"struct.net::QuicStreamFrame", ptr %74, i32 0, i32 4
  store i64 0, ptr %75, align 8, !tbaa !122
  %76 = load ptr, ptr %7, align 8, !tbaa !297
  %77 = load ptr, ptr %9, align 8, !tbaa !178
  %78 = getelementptr inbounds nuw %"struct.net::QuicStreamFrame", ptr %77, i32 0, i32 4
  %79 = load i8, ptr %12, align 1, !tbaa !107
  %80 = zext i8 %79 to i64
  %81 = call noundef zeroext i1 @_ZN3net14QuicDataReader9ReadBytesEPvm(ptr noundef nonnull align 8 dereferenceable(24) %76, ptr noundef %78, i64 noundef %80)
  br i1 %81, label %83, label %82

82:                                               ; preds = %73
  call void @_ZN3net10QuicFramer18set_detailed_errorEPKc(ptr noundef nonnull align 8 dereferenceable(408) %16, ptr noundef @.str.50)
  store i1 false, ptr %5, align 1
  store i32 1, ptr %14, align 4
  br label %107

83:                                               ; preds = %73
  call void @llvm.lifetime.start.p0(i64 16, ptr %15) #17
  call void @_ZN4base16BasicStringPieceINSt7__cxx1112basic_stringIcSt11char_traitsIcESaIcEEEEC2Ev(ptr noundef nonnull align 8 dereferenceable(16) %15)
  %84 = load i8, ptr %13, align 1, !tbaa !86, !range !87, !noundef !88
  %85 = trunc i8 %84 to i1
  br i1 %85, label %86, label %91

86:                                               ; preds = %83
  %87 = load ptr, ptr %7, align 8, !tbaa !297
  %88 = call noundef zeroext i1 @_ZN3net14QuicDataReader17ReadStringPiece16EPN4base16BasicStringPieceINSt7__cxx1112basic_stringIcSt11char_traitsIcESaIcEEEEE(ptr noundef nonnull align 8 dereferenceable(24) %87, ptr noundef %15)
  br i1 %88, label %90, label %89

89:                                               ; preds = %86
  call void @_ZN3net10QuicFramer18set_detailed_errorEPKc(ptr noundef nonnull align 8 dereferenceable(408) %16, ptr noundef @.str.51)
  store i1 false, ptr %5, align 1
  store i32 1, ptr %14, align 4
  br label %106

90:                                               ; preds = %86
  br label %98

91:                                               ; preds = %83
  %92 = load ptr, ptr %7, align 8, !tbaa !297
  %93 = load ptr, ptr %7, align 8, !tbaa !297
  %94 = call noundef i64 @_ZNK3net14QuicDataReader14BytesRemainingEv(ptr noundef nonnull align 8 dereferenceable(24) %93)
  %95 = call noundef zeroext i1 @_ZN3net14QuicDataReader15ReadStringPieceEPN4base16BasicStringPieceINSt7__cxx1112basic_stringIcSt11char_traitsIcESaIcEEEEEm(ptr noundef nonnull align 8 dereferenceable(24) %92, ptr noundef %15, i64 noundef %94)
  br i1 %95, label %97, label %96

96:                                               ; preds = %91
  call void @_ZN3net10QuicFramer18set_detailed_errorEPKc(ptr noundef nonnull align 8 dereferenceable(408) %16, ptr noundef @.str.51)
  store i1 false, ptr %5, align 1
  store i32 1, ptr %14, align 4
  br label %106

97:                                               ; preds = %91
  br label %98

98:                                               ; preds = %97, %90
  %99 = call noundef ptr @_ZNK4base16BasicStringPieceINSt7__cxx1112basic_stringIcSt11char_traitsIcESaIcEEEE4dataEv(ptr noundef nonnull align 8 dereferenceable(16) %15)
  %100 = load ptr, ptr %9, align 8, !tbaa !178
  %101 = getelementptr inbounds nuw %"struct.net::QuicStreamFrame", ptr %100, i32 0, i32 3
  store ptr %99, ptr %101, align 8, !tbaa !180
  %102 = call noundef i64 @_ZNK4base16BasicStringPieceINSt7__cxx1112basic_stringIcSt11char_traitsIcESaIcEEEE6lengthEv(ptr noundef nonnull align 8 dereferenceable(16) %15)
  %103 = trunc i64 %102 to i16
  %104 = load ptr, ptr %9, align 8, !tbaa !178
  %105 = getelementptr inbounds nuw %"struct.net::QuicStreamFrame", ptr %104, i32 0, i32 2
  store i16 %103, ptr %105, align 2, !tbaa !123
  store i1 true, ptr %5, align 1
  store i32 1, ptr %14, align 4
  br label %106

106:                                              ; preds = %98, %96, %89
  call void @llvm.lifetime.end.p0(i64 16, ptr %15) #17
  br label %107

107:                                              ; preds = %106, %82, %72
  call void @llvm.lifetime.end.p0(i64 1, ptr %13) #17
  call void @llvm.lifetime.end.p0(i64 1, ptr %12) #17
  call void @llvm.lifetime.end.p0(i64 1, ptr %11) #17
  call void @llvm.lifetime.end.p0(i64 1, ptr %10) #17
  %108 = load i1, ptr %5, align 1
  ret i1 %108
}