; Function Attrs: mustprogress uwtable
define noundef zeroext i1 @_ZN3net10QuicFramer18ProcessStreamFrameEPNS_14QuicDataReaderEhPNS_15QuicStreamFrameE(ptr noundef nonnull align 8 dereferenceable(408) %0, ptr noundef nonnull %1, i8 noundef zeroext %2, ptr noundef initializes((0, 5)) %3) local_unnamed_addr #0 align 2 {
  %5 = alloca %"class.base::BasicStringPiece", align 8
  %6 = and i8 %2, 3
  %7 = add nuw nsw i8 %6, 1
  %8 = and i8 %2, 32
  %.not29 = icmp eq i8 %8, 0
  %9 = getelementptr inbounds nuw i8, ptr %3, i64 4
  %10 = lshr i8 %2, 6
  %.lobit = and i8 %10, 1
  store i8 %.lobit, ptr %9, align 4, !tbaa !178
  store i32 0, ptr %3, align 8, !tbaa !94
  %11 = zext nneg i8 %7 to i64
  %12 = tail call noundef zeroext i1 @_ZN3net14QuicDataReader9ReadBytesEPvm(ptr noundef nonnull align 8 dereferenceable(24) %1, ptr noundef nonnull %3, i64 noundef %11)
  br i1 %12, label %18, label %13

13:                                               ; preds = %4
  %14 = getelementptr inbounds nuw i8, ptr %0, i64 8
  %15 = getelementptr inbounds nuw i8, ptr %0, i64 16
  %16 = load i64, ptr %15, align 8, !tbaa !11
  %17 = tail call noundef nonnull align 8 dereferenceable(32) ptr @_ZNSt7__cxx1112basic_stringIcSt11char_traitsIcESaIcEE10_M_replaceEmmPKcm(ptr noundef nonnull align 8 dereferenceable(32) %14, i64 noundef 0, i64 noundef %16, ptr noundef nonnull @.str.49, i64 noundef 25)
  br label %53

18:                                               ; preds = %4
  %19 = lshr i8 %2, 2
  %20 = and i8 %19, 7
  %.not = icmp eq i8 %20, 0
  %narrow = add nuw nsw i8 %20, 1
  %spec.select = select i1 %.not, i8 0, i8 %narrow
  %21 = getelementptr inbounds nuw i8, ptr %3, i64 16
  store i64 0, ptr %21, align 8, !tbaa !107
  %22 = zext nneg i8 %spec.select to i64
  %23 = tail call noundef zeroext i1 @_ZN3net14QuicDataReader9ReadBytesEPvm(ptr noundef nonnull align 8 dereferenceable(24) %1, ptr noundef nonnull %21, i64 noundef %22)
  br i1 %23, label %29, label %24

24:                                               ; preds = %18
  %25 = getelementptr inbounds nuw i8, ptr %0, i64 8
  %26 = getelementptr inbounds nuw i8, ptr %0, i64 16
  %27 = load i64, ptr %26, align 8, !tbaa !11
  %28 = tail call noundef nonnull align 8 dereferenceable(32) ptr @_ZNSt7__cxx1112basic_stringIcSt11char_traitsIcESaIcEE10_M_replaceEmmPKcm(ptr noundef nonnull align 8 dereferenceable(32) %25, i64 noundef 0, i64 noundef %27, ptr noundef nonnull @.str.50, i64 noundef 22)
  br label %53

29:                                               ; preds = %18
  call void @llvm.lifetime.start.p0(i64 16, ptr nonnull %5) #26
  call void @llvm.memset.p0.i64(ptr noundef nonnull align 8 dereferenceable(16) %5, i8 0, i64 16, i1 false)
  br i1 %.not29, label %37, label %30

30:                                               ; preds = %29
  %31 = call noundef zeroext i1 @_ZN3net14QuicDataReader17ReadStringPiece16EPN4base16BasicStringPieceINSt7__cxx1112basic_stringIcSt11char_traitsIcESaIcEEEEE(ptr noundef nonnull align 8 dereferenceable(24) %1, ptr noundef nonnull %5)
  br i1 %31, label %45, label %32

32:                                               ; preds = %30
  %33 = getelementptr inbounds nuw i8, ptr %0, i64 8
  %34 = getelementptr inbounds nuw i8, ptr %0, i64 16
  %35 = load i64, ptr %34, align 8, !tbaa !11
  %36 = call noundef nonnull align 8 dereferenceable(32) ptr @_ZNSt7__cxx1112basic_stringIcSt11char_traitsIcESaIcEE10_M_replaceEmmPKcm(ptr noundef nonnull align 8 dereferenceable(32) %33, i64 noundef 0, i64 noundef %35, ptr noundef nonnull @.str.51, i64 noundef 26)
  br label %52

37:                                               ; preds = %29
  %38 = tail call noundef i64 @_ZNK3net14QuicDataReader14BytesRemainingEv(ptr noundef nonnull align 8 dereferenceable(24) %1)
  %39 = call noundef zeroext i1 @_ZN3net14QuicDataReader15ReadStringPieceEPN4base16BasicStringPieceINSt7__cxx1112basic_stringIcSt11char_traitsIcESaIcEEEEEm(ptr noundef nonnull align 8 dereferenceable(24) %1, ptr noundef nonnull %5, i64 noundef %38)
  br i1 %39, label %45, label %40

40:                                               ; preds = %37
  %41 = getelementptr inbounds nuw i8, ptr %0, i64 8
  %42 = getelementptr inbounds nuw i8, ptr %0, i64 16
  %43 = load i64, ptr %42, align 8, !tbaa !11
  %44 = call noundef nonnull align 8 dereferenceable(32) ptr @_ZNSt7__cxx1112basic_stringIcSt11char_traitsIcESaIcEE10_M_replaceEmmPKcm(ptr noundef nonnull align 8 dereferenceable(32) %41, i64 noundef 0, i64 noundef %43, ptr noundef nonnull @.str.51, i64 noundef 26)
  br label %52

45:                                               ; preds = %37, %30
  %46 = load ptr, ptr %5, align 8, !tbaa !263
  %47 = getelementptr inbounds nuw i8, ptr %3, i64 8
  store ptr %46, ptr %47, align 8, !tbaa !179
  %48 = getelementptr inbounds nuw i8, ptr %5, i64 8
  %49 = load i64, ptr %48, align 8, !tbaa !265
  %50 = trunc i64 %49 to i16
  %51 = getelementptr inbounds nuw i8, ptr %3, i64 6
  store i16 %50, ptr %51, align 2, !tbaa !108
  br label %52

52:                                               ; preds = %45, %40, %32
  %.1 = phi i1 [ true, %45 ], [ false, %32 ], [ false, %40 ]
  call void @llvm.lifetime.end.p0(i64 16, ptr nonnull %5) #26
  br label %53

53:                                               ; preds = %52, %24, %13
  %.0 = phi i1 [ %.1, %52 ], [ false, %24 ], [ false, %13 ]
  ret i1 %.0
}